; Function Attrs: mustprogress nofree norecurse nosync nounwind memory(readwrite, inaccessiblemem: none) uwtable
define hidden void @_ZN3nla18const_iterator_mon12advance_maskEv(ptr nocapture noundef nonnull align 8 dereferenceable(24) %this) local_unnamed_addr #6 align 2 {
entry:
  %m_full_factorization_returned = getelementptr inbounds i8, ptr %this, i64 16
  %0 = load i8, ptr %m_full_factorization_returned, align 8
  %1 = and i8 %0, 1
  %tobool.not = icmp eq i8 %1, 0
  br i1 %tobool.not, label %if.then, label %if.end

if.then:                                          ; preds = %entry
  store i8 1, ptr %m_full_factorization_returned, align 8
  br label %for.end

if.end:                                           ; preds = %entry
  %2 = load ptr, ptr %this, align 8
  %cmp.i.i = icmp eq ptr %2, null
  br i1 %cmp.i.i, label %for.end, label %_ZN6vectorIbLb0EjE3endEv.exit

_ZN6vectorIbLb0EjE3endEv.exit:                    ; preds = %if.end
  %arrayidx.i.i = getelementptr inbounds i8, ptr %2, i64 -4
  %3 = load i32, ptr %arrayidx.i.i, align 4
  %4 = zext i32 %3 to i64
  %add.ptr.i = getelementptr inbounds i8, ptr %2, i64 %4
  %cmp.not7 = icmp eq i32 %3, 0
  br i1 %cmp.not7, label %for.end, label %for.body

for.body:                                         ; preds = %_ZN6vectorIbLb0EjE3endEv.exit, %if.then5
  %__begin1.08 = phi ptr [ %incdec.ptr, %if.then5 ], [ %2, %_ZN6vectorIbLb0EjE3endEv.exit ]
  %5 = load i8, ptr %__begin1.08, align 1
  %6 = and i8 %5, 1
  %tobool4.not = icmp eq i8 %6, 0
  br i1 %tobool4.not, label %if.else, label %if.then5

if.then5:                                         ; preds = %for.body
  store i8 0, ptr %__begin1.08, align 1
  %incdec.ptr = getelementptr inbounds i8, ptr %__begin1.08, i64 1
  %cmp.not = icmp eq ptr %incdec.ptr, %add.ptr.i
  br i1 %cmp.not, label %for.end, label %for.body

if.else:                                          ; preds = %for.body
  store i8 1, ptr %__begin1.08, align 1
  br label %for.end

for.end:                                          ; preds = %if.then5, %if.end, %_ZN6vectorIbLb0EjE3endEv.exit, %if.else, %if.then
  ret void
}